target datalayout = "e-m:e-p270:32:32-p271:32:32-p272:64:64-i64:64-i128:128-f80:128-n8:16:32:64-S128"
target triple = "x86_64-pc-linux-gnu"

; Function Attrs: nounwind uwtable
define internal void @pred8x8l_vertical_add_10_c(ptr noundef %0, ptr noundef %1, i64 noundef %2) #1 {
  %4 = alloca ptr, align 8
  %5 = alloca ptr, align 8
  %6 = alloca i64, align 8
  %7 = alloca i32, align 4
  %8 = alloca ptr, align 8
  %9 = alloca ptr, align 8
  %10 = alloca i16, align 2
  store ptr %0, ptr %4, align 8, !tbaa !12
  store ptr %1, ptr %5, align 8, !tbaa !16
  store i64 %2, ptr %6, align 8, !tbaa !14
  call void @llvm.lifetime.start.p0(i64 4, ptr %7) #9
  call void @llvm.lifetime.start.p0(i64 8, ptr %8) #9
  %11 = load ptr, ptr %4, align 8, !tbaa !12
  store ptr %11, ptr %8, align 8, !tbaa !16
  call void @llvm.lifetime.start.p0(i64 8, ptr %9) #9
  %12 = load ptr, ptr %5, align 8, !tbaa !16
  store ptr %12, ptr %9, align 8, !tbaa !63
  %13 = load i64, ptr %6, align 8, !tbaa !14
  %14 = ashr i64 %13, 1
  store i64 %14, ptr %6, align 8, !tbaa !14
  %15 = load i64, ptr %6, align 8, !tbaa !14
  %16 = load ptr, ptr %8, align 8, !tbaa !16
  %17 = sub i64 0, %15
  %18 = getelementptr inbounds i16, ptr %16, i64 %17
  store ptr %18, ptr %8, align 8, !tbaa !16
  store i32 0, ptr %7, align 4, !tbaa !9
  br label %19

19:                                               ; preds = %118, %3
  %20 = load i32, ptr %7, align 4, !tbaa !9
  %21 = icmp slt i32 %20, 8
  br i1 %21, label %22, label %121

22:                                               ; preds = %19
  call void @llvm.lifetime.start.p0(i64 2, ptr %10) #9
  %23 = load ptr, ptr %8, align 8, !tbaa !16
  %24 = getelementptr inbounds i16, ptr %23, i64 0
  %25 = load i16, ptr %24, align 2, !tbaa !19
  store i16 %25, ptr %10, align 2, !tbaa !19
  %26 = load ptr, ptr %9, align 8, !tbaa !63
  %27 = getelementptr inbounds i32, ptr %26, i64 0
  %28 = load i32, ptr %27, align 4, !tbaa !9
  %29 = load i16, ptr %10, align 2, !tbaa !19
  %30 = zext i16 %29 to i32
  %31 = add nsw i32 %30, %28
  %32 = trunc i32 %31 to i16
  store i16 %32, ptr %10, align 2, !tbaa !19
  %33 = load ptr, ptr %8, align 8, !tbaa !16
  %34 = load i64, ptr %6, align 8, !tbaa !14
  %35 = mul nsw i64 1, %34
  %36 = getelementptr inbounds i16, ptr %33, i64 %35
  store i16 %32, ptr %36, align 2, !tbaa !19
  %37 = load ptr, ptr %9, align 8, !tbaa !63
  %38 = getelementptr inbounds i32, ptr %37, i64 8
  %39 = load i32, ptr %38, align 4, !tbaa !9
  %40 = load i16, ptr %10, align 2, !tbaa !19
  %41 = zext i16 %40 to i32
  %42 = add nsw i32 %41, %39
  %43 = trunc i32 %42 to i16
  store i16 %43, ptr %10, align 2, !tbaa !19
  %44 = load ptr, ptr %8, align 8, !tbaa !16
  %45 = load i64, ptr %6, align 8, !tbaa !14
  %46 = mul nsw i64 2, %45
  %47 = getelementptr inbounds i16, ptr %44, i64 %46
  store i16 %43, ptr %47, align 2, !tbaa !19
  %48 = load ptr, ptr %9, align 8, !tbaa !63
  %49 = getelementptr inbounds i32, ptr %48, i64 16
  %50 = load i32, ptr %49, align 4, !tbaa !9
  %51 = load i16, ptr %10, align 2, !tbaa !19
  %52 = zext i16 %51 to i32
  %53 = add nsw i32 %52, %50
  %54 = trunc i32 %53 to i16
  store i16 %54, ptr %10, align 2, !tbaa !19
  %55 = load ptr, ptr %8, align 8, !tbaa !16
  %56 = load i64, ptr %6, align 8, !tbaa !14
  %57 = mul nsw i64 3, %56
  %58 = getelementptr inbounds i16, ptr %55, i64 %57
  store i16 %54, ptr %58, align 2, !tbaa !19
  %59 = load ptr, ptr %9, align 8, !tbaa !63
  %60 = getelementptr inbounds i32, ptr %59, i64 24
  %61 = load i32, ptr %60, align 4, !tbaa !9
  %62 = load i16, ptr %10, align 2, !tbaa !19
  %63 = zext i16 %62 to i32
  %64 = add nsw i32 %63, %61
  %65 = trunc i32 %64 to i16
  store i16 %65, ptr %10, align 2, !tbaa !19
  %66 = load ptr, ptr %8, align 8, !tbaa !16
  %67 = load i64, ptr %6, align 8, !tbaa !14
  %68 = mul nsw i64 4, %67
  %69 = getelementptr inbounds i16, ptr %66, i64 %68
  store i16 %65, ptr %69, align 2, !tbaa !19
  %70 = load ptr, ptr %9, align 8, !tbaa !63
  %71 = getelementptr inbounds i32, ptr %70, i64 32
  %72 = load i32, ptr %71, align 4, !tbaa !9
  %73 = load i16, ptr %10, align 2, !tbaa !19
  %74 = zext i16 %73 to i32
  %75 = add nsw i32 %74, %72
  %76 = trunc i32 %75 to i16
  store i16 %76, ptr %10, align 2, !tbaa !19
  %77 = load ptr, ptr %8, align 8, !tbaa !16
  %78 = load i64, ptr %6, align 8, !tbaa !14
  %79 = mul nsw i64 5, %78
  %80 = getelementptr inbounds i16, ptr %77, i64 %79
  store i16 %76, ptr %80, align 2, !tbaa !19
  %81 = load ptr, ptr %9, align 8, !tbaa !63
  %82 = getelementptr inbounds i32, ptr %81, i64 40
  %83 = load i32, ptr %82, align 4, !tbaa !9
  %84 = load i16, ptr %10, align 2, !tbaa !19
  %85 = zext i16 %84 to i32
  %86 = add nsw i32 %85, %83
  %87 = trunc i32 %86 to i16
  store i16 %87, ptr %10, align 2, !tbaa !19
  %88 = load ptr, ptr %8, align 8, !tbaa !16
  %89 = load i64, ptr %6, align 8, !tbaa !14
  %90 = mul nsw i64 6, %89
  %91 = getelementptr inbounds i16, ptr %88, i64 %90
  store i16 %87, ptr %91, align 2, !tbaa !19
  %92 = load ptr, ptr %9, align 8, !tbaa !63
  %93 = getelementptr inbounds i32, ptr %92, i64 48
  %94 = load i32, ptr %93, align 4, !tbaa !9
  %95 = load i16, ptr %10, align 2, !tbaa !19
  %96 = zext i16 %95 to i32
  %97 = add nsw i32 %96, %94
  %98 = trunc i32 %97 to i16
  store i16 %98, ptr %10, align 2, !tbaa !19
  %99 = load ptr, ptr %8, align 8, !tbaa !16
  %100 = load i64, ptr %6, align 8, !tbaa !14
  %101 = mul nsw i64 7, %100
  %102 = getelementptr inbounds i16, ptr %99, i64 %101
  store i16 %98, ptr %102, align 2, !tbaa !19
  %103 = load i16, ptr %10, align 2, !tbaa !19
  %104 = zext i16 %103 to i32
  %105 = load ptr, ptr %9, align 8, !tbaa !63
  %106 = getelementptr inbounds i32, ptr %105, i64 56
  %107 = load i32, ptr %106, align 4, !tbaa !9
  %108 = add nsw i32 %104, %107
  %109 = trunc i32 %108 to i16
  %110 = load ptr, ptr %8, align 8, !tbaa !16
  %111 = load i64, ptr %6, align 8, !tbaa !14
  %112 = mul nsw i64 8, %111
  %113 = getelementptr inbounds i16, ptr %110, i64 %112
  store i16 %109, ptr %113, align 2, !tbaa !19
  %114 = load ptr, ptr %8, align 8, !tbaa !16
  %115 = getelementptr inbounds nuw i16, ptr %114, i32 1
  store ptr %115, ptr %8, align 8, !tbaa !16
  %116 = load ptr, ptr %9, align 8, !tbaa !63
  %117 = getelementptr inbounds nuw i32, ptr %116, i32 1
  store ptr %117, ptr %9, align 8, !tbaa !63
  call void @llvm.lifetime.end.p0(i64 2, ptr %10) #9
  br label %118

118:                                              ; preds = %22
  %119 = load i32, ptr %7, align 4, !tbaa !9
  %120 = add nsw i32 %119, 1
  store i32 %120, ptr %7, align 4, !tbaa !9
  br label %19, !llvm.loop !122

121:                                              ; preds = %19
  %122 = load ptr, ptr %5, align 8, !tbaa !16
  call void @llvm.memset.p0.i64(ptr align 2 %122, i8 0, i64 256, i1 false)
  call void @llvm.lifetime.end.p0(i64 8, ptr %9) #9
  call void @llvm.lifetime.end.p0(i64 8, ptr %8) #9
  call void @llvm.lifetime.end.p0(i64 4, ptr %7) #9
  ret void
}