; Function Attrs: nofree norecurse nosync nounwind memory(argmem: readwrite) uwtable
define internal void @pred8x8l_vertical_add_10_c(ptr noundef captures(none) %0, ptr noundef captures(none) %1, i64 noundef %2) #3 {
  %4 = ashr i64 %2, 1
  %5 = sub nsw i64 0, %4
  %6 = getelementptr inbounds i16, ptr %0, i64 %5
  %7 = and i64 %2, -2
  %.idx = mul nsw i64 %4, 6
  %.idx44 = shl nsw i64 %4, 3
  %.idx45 = mul nsw i64 %4, 10
  %.idx46 = mul nsw i64 %4, 12
  %.idx47 = mul nsw i64 %4, 14
  %.idx48 = shl nsw i64 %4, 4
  br label %8

8:                                                ; preds = %3, %8
  %.051 = phi ptr [ %1, %3 ], [ %50, %8 ]
  %.04250 = phi ptr [ %6, %3 ], [ %49, %8 ]
  %.04349 = phi i32 [ 0, %3 ], [ %51, %8 ]
  %9 = load i16, ptr %.04250, align 2, !tbaa !9
  %10 = load i32, ptr %.051, align 4, !tbaa !56
  %11 = trunc i32 %10 to i16
  %12 = add i16 %9, %11
  %13 = getelementptr inbounds i16, ptr %.04250, i64 %4
  store i16 %12, ptr %13, align 2, !tbaa !9
  %14 = getelementptr inbounds nuw i8, ptr %.051, i64 32
  %15 = load i32, ptr %14, align 4, !tbaa !56
  %16 = trunc i32 %15 to i16
  %17 = add i16 %12, %16
  %18 = getelementptr inbounds i16, ptr %.04250, i64 %7
  store i16 %17, ptr %18, align 2, !tbaa !9
  %19 = getelementptr inbounds nuw i8, ptr %.051, i64 64
  %20 = load i32, ptr %19, align 4, !tbaa !56
  %21 = trunc i32 %20 to i16
  %22 = add i16 %17, %21
  %23 = getelementptr inbounds i8, ptr %.04250, i64 %.idx
  store i16 %22, ptr %23, align 2, !tbaa !9
  %24 = getelementptr inbounds nuw i8, ptr %.051, i64 96
  %25 = load i32, ptr %24, align 4, !tbaa !56
  %26 = trunc i32 %25 to i16
  %27 = add i16 %22, %26
  %28 = getelementptr inbounds i8, ptr %.04250, i64 %.idx44
  store i16 %27, ptr %28, align 2, !tbaa !9
  %29 = getelementptr inbounds nuw i8, ptr %.051, i64 128
  %30 = load i32, ptr %29, align 4, !tbaa !56
  %31 = trunc i32 %30 to i16
  %32 = add i16 %27, %31
  %33 = getelementptr inbounds i8, ptr %.04250, i64 %.idx45
  store i16 %32, ptr %33, align 2, !tbaa !9
  %34 = getelementptr inbounds nuw i8, ptr %.051, i64 160
  %35 = load i32, ptr %34, align 4, !tbaa !56
  %36 = trunc i32 %35 to i16
  %37 = add i16 %32, %36
  %38 = getelementptr inbounds i8, ptr %.04250, i64 %.idx46
  store i16 %37, ptr %38, align 2, !tbaa !9
  %39 = getelementptr inbounds nuw i8, ptr %.051, i64 192
  %40 = load i32, ptr %39, align 4, !tbaa !56
  %41 = trunc i32 %40 to i16
  %42 = add i16 %37, %41
  %43 = getelementptr inbounds i8, ptr %.04250, i64 %.idx47
  store i16 %42, ptr %43, align 2, !tbaa !9
  %44 = getelementptr inbounds nuw i8, ptr %.051, i64 224
  %45 = load i32, ptr %44, align 4, !tbaa !56
  %46 = trunc i32 %45 to i16
  %47 = add i16 %42, %46
  %48 = getelementptr inbounds i8, ptr %.04250, i64 %.idx48
  store i16 %47, ptr %48, align 2, !tbaa !9
  %49 = getelementptr inbounds nuw i8, ptr %.04250, i64 2
  %50 = getelementptr inbounds nuw i8, ptr %.051, i64 4
  %51 = add nuw nsw i32 %.04349, 1
  %exitcond.not = icmp eq i32 %51, 8
  br i1 %exitcond.not, label %52, label %8, !llvm.loop !118

52:                                               ; preds = %8
  tail call void @llvm.memset.p0.i64(ptr noundef nonnull align 2 dereferenceable(256) %1, i8 0, i64 256, i1 false)
  ret void
}